target datalayout = "e-m:e-p270:32:32-p271:32:32-p272:64:64-i64:64-i128:128-f80:128-n8:16:32:64-S128"
target triple = "x86_64-pc-linux-gnu"

%struct.AVCodecContext = type { ptr, i32, i32, ptr, i32, i32, ptr, ptr, ptr, i64, i32, i32, ptr, i32, %struct.AVRational, %struct.AVRational, %struct.AVRational, i32, i32, i32, i32, i32, %struct.AVRational, i32, i32, i32, i32, i32, i32, i32, i32, i32, i32, i32, ptr, ptr, i32, float, float, float, float, float, float, float, float, float, i32, i32, i32, i32, i32, i32, i32, i32, i32, i32, i32, i32, ptr, ptr, ptr, i32, i32, i32, i32, i32, i32, i32, i32, i32, i32, %struct.AVChannelLayout, i32, i32, i32, i32, i32, i32, i32, i32, ptr, i32, i32, i32, float, float, i32, i32, i32, i32, i32, ptr, i64, i64, float, float, i32, i32, ptr, ptr, i32, i32, i32, i32, i32, ptr, ptr, ptr, ptr, i32, i32, [8 x i64], i32, i32, i32, i32, i32, i32, i32, ptr, ptr, i32, i32, i32, i32, i32, i32, i32, i32, i32, i32, ptr, ptr, i32, i32, ptr, ptr, ptr, ptr, i32, i32, i64, i32, i32, i64, ptr, i64, ptr, i32, ptr, i32 }
%struct.AVRational = type { i32, i32 }
%struct.AVChannelLayout = type { i32, i32, %union.anon.0, ptr }
%union.anon.0 = type { i64 }
%struct.WMACodecContext = type { ptr, %struct.GetBitContext, %struct.PutBitContext, i32, i32, i32, i32, i32, i32, %struct.VLC, [5 x i32], [5 x [25 x i16]], [5 x i32], i32, [5 x i32], [5 x i32], [5 x [16 x i32]], %struct.VLC, [2 x [16 x i32]], [2 x [16 x i32]], [2 x %struct.VLC], [2 x ptr], [2 x ptr], [2 x ptr], [2 x ptr], i32, i32, i32, i32, i32, i32, i32, i32, i32, i32, i8, [2 x i8], [2 x i32], [12 x i8], [2 x [2048 x float]], [2 x float], [2 x [2048 x float]], [8 x i8], [2 x [2048 x float]], [4096 x float], [5 x ptr], [5 x ptr], [5 x ptr], [8 x i8], [2 x [4096 x float]], [32832 x i8], i32, i32, [2 x i32], [8192 x float], i32, float, [2048 x float], [256 x float], [128 x float], [128 x float], ptr, i32, [12 x i8] }
%struct.GetBitContext = type { ptr, ptr, i32, i32, i32 }
%struct.PutBitContext = type { i32, i32, ptr, ptr, ptr }
%struct.VLC = type { i32, ptr, i32, i32 }
%struct.AVCodecInternal = type { i32, i32, i32, ptr, ptr, ptr, ptr, ptr, ptr, ptr, i32, ptr, ptr, ptr, i32, i32, ptr, i32, ptr, ptr, i32, i32 }

; Function Attrs: cold nounwind optsize uwtable
define internal void @flush(ptr noundef %0) #0 {
  %2 = alloca ptr, align 8
  %3 = alloca ptr, align 8
  store ptr %0, ptr %2, align 8, !tbaa !4
  call void @llvm.lifetime.start.p0(i64 8, ptr %3) #10
  %4 = load ptr, ptr %2, align 8, !tbaa !4
  %5 = getelementptr inbounds nuw %struct.AVCodecContext, ptr %4, i32 0, i32 6
  %6 = load ptr, ptr %5, align 8, !tbaa !9
  store ptr %6, ptr %3, align 8, !tbaa !29
  %7 = load ptr, ptr %3, align 8, !tbaa !29
  %8 = getelementptr inbounds nuw %struct.WMACodecContext, ptr %7, i32 0, i32 52
  store i32 0, ptr %8, align 4, !tbaa !86
  %9 = load ptr, ptr %3, align 8, !tbaa !29
  %10 = getelementptr inbounds nuw %struct.WMACodecContext, ptr %9, i32 0, i32 51
  store i32 0, ptr %10, align 16, !tbaa !92
  %11 = load ptr, ptr %3, align 8, !tbaa !29
  %12 = getelementptr inbounds nuw %struct.WMACodecContext, ptr %11, i32 0, i32 62
  store i32 0, ptr %12, align 16, !tbaa !76
  %13 = load ptr, ptr %3, align 8, !tbaa !29
  %14 = getelementptr inbounds nuw %struct.WMACodecContext, ptr %13, i32 0, i32 25
  %15 = load i32, ptr %14, align 16, !tbaa !60
  %16 = mul nsw i32 %15, 2
  %17 = load ptr, ptr %2, align 8, !tbaa !4
  %18 = getelementptr inbounds nuw %struct.AVCodecContext, ptr %17, i32 0, i32 7
  %19 = load ptr, ptr %18, align 8, !tbaa !62
  %20 = getelementptr inbounds nuw %struct.AVCodecInternal, ptr %19, i32 0, i32 15
  store i32 %16, ptr %20, align 4, !tbaa !63
  call void @llvm.lifetime.end.p0(i64 8, ptr %3) #10
  ret void
}