; Function Attrs: cold mustprogress nofree norecurse nosync nounwind optsize willreturn memory(readwrite, inaccessiblemem: none) uwtable
define internal void @flush(ptr noundef readonly captures(none) %0) #3 {
  %2 = getelementptr inbounds nuw i8, ptr %0, i64 32
  %3 = load ptr, ptr %2, align 8, !tbaa !4
  %4 = getelementptr inbounds nuw i8, ptr %3, i64 132516
  store i32 0, ptr %4, align 4, !tbaa !78
  %5 = getelementptr inbounds nuw i8, ptr %3, i64 132512
  store i32 0, ptr %5, align 16, !tbaa !88
  %6 = getelementptr inbounds nuw i8, ptr %3, i64 175552
  store i32 0, ptr %6, align 16, !tbaa !67
  %7 = getelementptr inbounds nuw i8, ptr %3, i64 1168
  %8 = load i32, ptr %7, align 16, !tbaa !54
  %9 = shl nsw i32 %8, 1
  %10 = getelementptr inbounds nuw i8, ptr %0, i64 40
  %11 = load ptr, ptr %10, align 8, !tbaa !56
  %12 = getelementptr inbounds nuw i8, ptr %11, i64 108
  store i32 %9, ptr %12, align 4, !tbaa !57
  ret void
}